target datalayout = "e-m:e-p270:32:32-p271:32:32-p272:64:64-i64:64-i128:128-f80:128-n8:16:32:64-S128"
target triple = "x86_64-pc-linux-gnu"

%struct.TS_resp_ctx = type { ptr, ptr, ptr, ptr, ptr, ptr, ptr, ptr, ptr, ptr, ptr, i32, i32, ptr, ptr, ptr, ptr, ptr, ptr, ptr, ptr, ptr, ptr, ptr }

@.str = private unnamed_addr constant [35 x i8] c"../openssl/crypto/ts/ts_rsp_sign.c\00", align 1
@__func__.TS_RESP_CTX_set_accuracy = private unnamed_addr constant [25 x i8] c"TS_RESP_CTX_set_accuracy\00", align 1

; Function Attrs: nounwind uwtable
define i32 @TS_RESP_CTX_set_accuracy(ptr noundef %0, i32 noundef %1, i32 noundef %2, i32 noundef %3) #0 {
  %5 = alloca i32, align 4
  %6 = alloca ptr, align 8
  %7 = alloca i32, align 4
  %8 = alloca i32, align 4
  %9 = alloca i32, align 4
  store ptr %0, ptr %6, align 8, !tbaa !10
  store i32 %1, ptr %7, align 4, !tbaa !60
  store i32 %2, ptr %8, align 4, !tbaa !60
  store i32 %3, ptr %9, align 4, !tbaa !60
  %10 = load ptr, ptr %6, align 8, !tbaa !10
  %11 = getelementptr inbounds nuw %struct.TS_resp_ctx, ptr %10, i32 0, i32 8
  %12 = load ptr, ptr %11, align 8, !tbaa !49
  call void @ASN1_INTEGER_free(ptr noundef %12)
  %13 = load ptr, ptr %6, align 8, !tbaa !10
  %14 = getelementptr inbounds nuw %struct.TS_resp_ctx, ptr %13, i32 0, i32 8
  store ptr null, ptr %14, align 8, !tbaa !49
  %15 = load ptr, ptr %6, align 8, !tbaa !10
  %16 = getelementptr inbounds nuw %struct.TS_resp_ctx, ptr %15, i32 0, i32 9
  %17 = load ptr, ptr %16, align 8, !tbaa !50
  call void @ASN1_INTEGER_free(ptr noundef %17)
  %18 = load ptr, ptr %6, align 8, !tbaa !10
  %19 = getelementptr inbounds nuw %struct.TS_resp_ctx, ptr %18, i32 0, i32 9
  store ptr null, ptr %19, align 8, !tbaa !50
  %20 = load ptr, ptr %6, align 8, !tbaa !10
  %21 = getelementptr inbounds nuw %struct.TS_resp_ctx, ptr %20, i32 0, i32 10
  %22 = load ptr, ptr %21, align 8, !tbaa !51
  call void @ASN1_INTEGER_free(ptr noundef %22)
  %23 = load ptr, ptr %6, align 8, !tbaa !10
  %24 = getelementptr inbounds nuw %struct.TS_resp_ctx, ptr %23, i32 0, i32 10
  store ptr null, ptr %24, align 8, !tbaa !51
  %25 = load i32, ptr %7, align 4, !tbaa !60
  %26 = icmp ne i32 %25, 0
  br i1 %26, label %27, label %41

27:                                               ; preds = %4
  %28 = call ptr @ASN1_INTEGER_new()
  %29 = load ptr, ptr %6, align 8, !tbaa !10
  %30 = getelementptr inbounds nuw %struct.TS_resp_ctx, ptr %29, i32 0, i32 8
  store ptr %28, ptr %30, align 8, !tbaa !49
  %31 = icmp eq ptr %28, null
  br i1 %31, label %40, label %32

32:                                               ; preds = %27
  %33 = load ptr, ptr %6, align 8, !tbaa !10
  %34 = getelementptr inbounds nuw %struct.TS_resp_ctx, ptr %33, i32 0, i32 8
  %35 = load ptr, ptr %34, align 8, !tbaa !49
  %36 = load i32, ptr %7, align 4, !tbaa !60
  %37 = sext i32 %36 to i64
  %38 = call i32 @ASN1_INTEGER_set(ptr noundef %35, i64 noundef %37)
  %39 = icmp ne i32 %38, 0
  br i1 %39, label %41, label %40

40:                                               ; preds = %32, %27
  br label %76

41:                                               ; preds = %32, %4
  %42 = load i32, ptr %8, align 4, !tbaa !60
  %43 = icmp ne i32 %42, 0
  br i1 %43, label %44, label %58

44:                                               ; preds = %41
  %45 = call ptr @ASN1_INTEGER_new()
  %46 = load ptr, ptr %6, align 8, !tbaa !10
  %47 = getelementptr inbounds nuw %struct.TS_resp_ctx, ptr %46, i32 0, i32 9
  store ptr %45, ptr %47, align 8, !tbaa !50
  %48 = icmp eq ptr %45, null
  br i1 %48, label %57, label %49

49:                                               ; preds = %44
  %50 = load ptr, ptr %6, align 8, !tbaa !10
  %51 = getelementptr inbounds nuw %struct.TS_resp_ctx, ptr %50, i32 0, i32 9
  %52 = load ptr, ptr %51, align 8, !tbaa !50
  %53 = load i32, ptr %8, align 4, !tbaa !60
  %54 = sext i32 %53 to i64
  %55 = call i32 @ASN1_INTEGER_set(ptr noundef %52, i64 noundef %54)
  %56 = icmp ne i32 %55, 0
  br i1 %56, label %58, label %57

57:                                               ; preds = %49, %44
  br label %76

58:                                               ; preds = %49, %41
  %59 = load i32, ptr %9, align 4, !tbaa !60
  %60 = icmp ne i32 %59, 0
  br i1 %60, label %61, label %75

61:                                               ; preds = %58
  %62 = call ptr @ASN1_INTEGER_new()
  %63 = load ptr, ptr %6, align 8, !tbaa !10
  %64 = getelementptr inbounds nuw %struct.TS_resp_ctx, ptr %63, i32 0, i32 10
  store ptr %62, ptr %64, align 8, !tbaa !51
  %65 = icmp eq ptr %62, null
  br i1 %65, label %74, label %66

66:                                               ; preds = %61
  %67 = load ptr, ptr %6, align 8, !tbaa !10
  %68 = getelementptr inbounds nuw %struct.TS_resp_ctx, ptr %67, i32 0, i32 10
  %69 = load ptr, ptr %68, align 8, !tbaa !51
  %70 = load i32, ptr %9, align 4, !tbaa !60
  %71 = sext i32 %70 to i64
  %72 = call i32 @ASN1_INTEGER_set(ptr noundef %69, i64 noundef %71)
  %73 = icmp ne i32 %72, 0
  br i1 %73, label %75, label %74

74:                                               ; preds = %66, %61
  br label %76

75:                                               ; preds = %66, %58
  store i32 1, ptr %5, align 4
  br label %92

76:                                               ; preds = %74, %57, %40
  %77 = load ptr, ptr %6, align 8, !tbaa !10
  %78 = getelementptr inbounds nuw %struct.TS_resp_ctx, ptr %77, i32 0, i32 8
  %79 = load ptr, ptr %78, align 8, !tbaa !49
  call void @ASN1_INTEGER_free(ptr noundef %79)
  %80 = load ptr, ptr %6, align 8, !tbaa !10
  %81 = getelementptr inbounds nuw %struct.TS_resp_ctx, ptr %80, i32 0, i32 8
  store ptr null, ptr %81, align 8, !tbaa !49
  %82 = load ptr, ptr %6, align 8, !tbaa !10
  %83 = getelementptr inbounds nuw %struct.TS_resp_ctx, ptr %82, i32 0, i32 9
  %84 = load ptr, ptr %83, align 8, !tbaa !50
  call void @ASN1_INTEGER_free(ptr noundef %84)
  %85 = load ptr, ptr %6, align 8, !tbaa !10
  %86 = getelementptr inbounds nuw %struct.TS_resp_ctx, ptr %85, i32 0, i32 9
  store ptr null, ptr %86, align 8, !tbaa !50
  %87 = load ptr, ptr %6, align 8, !tbaa !10
  %88 = getelementptr inbounds nuw %struct.TS_resp_ctx, ptr %87, i32 0, i32 10
  %89 = load ptr, ptr %88, align 8, !tbaa !51
  call void @ASN1_INTEGER_free(ptr noundef %89)
  %90 = load ptr, ptr %6, align 8, !tbaa !10
  %91 = getelementptr inbounds nuw %struct.TS_resp_ctx, ptr %90, i32 0, i32 10
  store ptr null, ptr %91, align 8, !tbaa !51
  call void @ERR_new()
  call void @ERR_set_debug(ptr noundef @.str, i32 noundef 252, ptr noundef @__func__.TS_RESP_CTX_set_accuracy)
  call void (i32, i32, ptr, ...) @ERR_set_error(i32 noundef 47, i32 noundef 524301, ptr noundef null)
  store i32 0, ptr %5, align 4
  br label %92

92:                                               ; preds = %76, %75
  %93 = load i32, ptr %5, align 4
  ret i32 %93
}