; Function Attrs: nounwind uwtable
define range(i32 0, 2) i32 @TS_RESP_CTX_set_accuracy(ptr noundef captures(none) %0, i32 noundef %1, i32 noundef %2, i32 noundef %3) local_unnamed_addr #0 {
  %5 = getelementptr inbounds nuw i8, ptr %0, i64 64
  %6 = load ptr, ptr %5, align 8, !tbaa !42
  tail call void @ASN1_INTEGER_free(ptr noundef %6) #9
  store ptr null, ptr %5, align 8, !tbaa !42
  %7 = getelementptr inbounds nuw i8, ptr %0, i64 72
  %8 = load ptr, ptr %7, align 8, !tbaa !43
  tail call void @ASN1_INTEGER_free(ptr noundef %8) #9
  store ptr null, ptr %7, align 8, !tbaa !43
  %9 = getelementptr inbounds nuw i8, ptr %0, i64 80
  %10 = load ptr, ptr %9, align 8, !tbaa !44
  tail call void @ASN1_INTEGER_free(ptr noundef %10) #9
  store ptr null, ptr %9, align 8, !tbaa !44
  %.not = icmp eq i32 %1, 0
  br i1 %.not, label %17, label %11

11:                                               ; preds = %4
  %12 = tail call ptr @ASN1_INTEGER_new() #9
  store ptr %12, ptr %5, align 8, !tbaa !42
  %13 = icmp eq ptr %12, null
  br i1 %13, label %31, label %14

14:                                               ; preds = %11
  %15 = sext i32 %1 to i64
  %16 = tail call i32 @ASN1_INTEGER_set(ptr noundef nonnull %12, i64 noundef %15) #9
  %.not30 = icmp eq i32 %16, 0
  br i1 %.not30, label %31, label %17

17:                                               ; preds = %14, %4
  %.not31 = icmp eq i32 %2, 0
  br i1 %.not31, label %24, label %18

18:                                               ; preds = %17
  %19 = tail call ptr @ASN1_INTEGER_new() #9
  store ptr %19, ptr %7, align 8, !tbaa !43
  %20 = icmp eq ptr %19, null
  br i1 %20, label %31, label %21

21:                                               ; preds = %18
  %22 = sext i32 %2 to i64
  %23 = tail call i32 @ASN1_INTEGER_set(ptr noundef nonnull %19, i64 noundef %22) #9
  %.not32 = icmp eq i32 %23, 0
  br i1 %.not32, label %31, label %24

24:                                               ; preds = %21, %17
  %.not33 = icmp eq i32 %3, 0
  br i1 %.not33, label %35, label %25

25:                                               ; preds = %24
  %26 = tail call ptr @ASN1_INTEGER_new() #9
  store ptr %26, ptr %9, align 8, !tbaa !44
  %27 = icmp eq ptr %26, null
  br i1 %27, label %31, label %28

28:                                               ; preds = %25
  %29 = sext i32 %3 to i64
  %30 = tail call i32 @ASN1_INTEGER_set(ptr noundef nonnull %26, i64 noundef %29) #9
  %.not34 = icmp eq i32 %30, 0
  br i1 %.not34, label %31, label %35

31:                                               ; preds = %25, %28, %18, %21, %11, %14
  %32 = load ptr, ptr %5, align 8, !tbaa !42
  tail call void @ASN1_INTEGER_free(ptr noundef %32) #9
  store ptr null, ptr %5, align 8, !tbaa !42
  %33 = load ptr, ptr %7, align 8, !tbaa !43
  tail call void @ASN1_INTEGER_free(ptr noundef %33) #9
  store ptr null, ptr %7, align 8, !tbaa !43
  %34 = load ptr, ptr %9, align 8, !tbaa !44
  tail call void @ASN1_INTEGER_free(ptr noundef %34) #9
  store ptr null, ptr %9, align 8, !tbaa !44
  tail call void @ERR_new() #9
  tail call void @ERR_set_debug(ptr noundef nonnull @.str, i32 noundef 252, ptr noundef nonnull @__func__.TS_RESP_CTX_set_accuracy) #9
  tail call void (i32, i32, ptr, ...) @ERR_set_error(i32 noundef 47, i32 noundef 524301, ptr noundef null) #9
  br label %35

35:                                               ; preds = %24, %28, %31
  %.0 = phi i32 [ 0, %31 ], [ 1, %28 ], [ 1, %24 ]
  ret i32 %.0
}